Certificate:
    Data:
        Version: 3 (0x2)
        Serial Number: 2 (0x2)
    Signature Algorithm: sha1WithRSAEncryption
        Issuer: C=FR, ST=Centre, L=LA CHAUSSEE-SAINT-VICTOR, O=Fiction Factory, OU=fiction-factory, CN=router01.fiction-factory.intranet/name=router01/emailAddress=fauriethibaud@gmail.com
        Validity
            Not Before: Dec  9 15:24:56 2018 GMT
            Not After : Dec  6 15:24:56 2028 GMT
        Subject: C=FR, ST=Centre, L=LA CHAUSSEE-SAINT-VICTOR, O=Fiction Factory, OU=fiction-factory, CN=client/name=client/emailAddress=admin@fiction-factory.intranet
        Subject Public Key Info:
            Public Key Algorithm: rsaEncryption
                Public-Key: (1024 bit)
                Modulus:
                    00:d0:50:bc:24:04:32:18:b9:a5:cc:6c:aa:c5:ad:
                    4d:eb:ee:61:df:a4:9b:81:c6:b9:5b:65:0f:9e:43:
                    ed:39:62:3b:dd:95:f2:5e:51:75:85:76:b7:2a:9a:
                    1e:c6:40:a4:f9:69:71:fe:64:84:88:c5:56:9f:4a:
                    b4:d9:4c:03:68:39:4c:6c:98:49:c9:0f:62:78:ea:
                    37:6a:8c:d3:ba:10:26:3f:c7:25:b6:78:36:ee:7b:
                    09:ec:4b:b5:d6:b7:41:0e:67:ff:a6:b1:e8:f9:02:
                    b2:23:73:cd:fe:c4:87:6a:c9:4d:9c:8d:f7:52:56:
                    44:f3:07:de:05:91:8e:80:8b
                Exponent: 65537 (0x10001)
        X509v3 extensions:
            X509v3 Basic Constraints: 
                CA:FALSE
            Netscape Comment: 
                Easy-RSA Generated Certificate
            X509v3 Subject Key Identifier: 
                41:36:41:01:18:03:DF:BB:47:27:AB:5F:BE:14:9D:2F:E3:76:0B:BC
            X509v3 Authority Key Identifier: 
                keyid:49:B6:48:06:23:14:3F:61:0B:E5:BA:AC:09:DE:70:62:D9:7C:D1:17
                DirName:/C=FR/ST=Centre/L=LA CHAUSSEE-SAINT-VICTOR/O=Fiction Factory/OU=fiction-factory/CN=router01.fiction-factory.intranet/name=router01/emailAddress=fauriethibaud@gmail.com
                serial:FD:44:98:5D:B8:14:C5:26

            X509v3 Extended Key Usage: 
                TLS Web Client Authentication
            X509v3 Key Usage: 
                Digital Signature
    Signature Algorithm: sha1WithRSAEncryption
         39:2e:aa:22:71:42:81:40:94:63:0e:e1:cb:77:ff:0e:b9:4e:
         10:d1:93:1e:4e:ce:00:5d:26:8b:50:45:a0:6f:8b:43:cb:39:
         7a:1c:42:78:b5:95:79:e2:2f:61:bb:0c:03:d2:e1:e7:80:55:
         99:d4:e3:bc:95:4b:85:b8:61:c9:2f:cb:4b:c5:6d:a2:b4:1e:
         2a:ec:11:f5:a9:a4:43:01:80:34:33:6c:d6:77:5e:86:38:82:
         d6:16:88:5a:72:e0:cb:ca:af:f0:b4:33:48:bb:d2:2e:30:0b:
         52:fc:53:cc:f2:f5:2e:eb:53:f6:63:1a:fc:b4:49:a0:83:e2:
         a8:a6
-----BEGIN CERTIFICATE-----
MIIEsjCCBBugAwIBAgIBAjANBgkqhkiG9w0BAQUFADCB3DELMAkGA1UEBhMCRlIx
DzANBgNVBAgTBkNlbnRyZTEhMB8GA1UEBxMYTEEgQ0hBVVNTRUUtU0FJTlQtVklD
VE9SMRgwFgYDVQQKEw9GaWN0aW9uIEZhY3RvcnkxGDAWBgNVBAsTD2ZpY3Rpb24t
ZmFjdG9yeTEqMCgGA1UEAxMhcm91dGVyMDEuZmljdGlvbi1mYWN0b3J5LmludHJh
bmV0MREwDwYDVQQpEwhyb3V0ZXIwMTEmMCQGCSqGSIb3DQEJARYXZmF1cmlldGhp
YmF1ZEBnbWFpbC5jb20wHhcNMTgxMjA5MTUyNDU2WhcNMjgxMjA2MTUyNDU2WjCB
xjELMAkGA1UEBhMCRlIxDzANBgNVBAgTBkNlbnRyZTEhMB8GA1UEBxMYTEEgQ0hB
VVNTRUUtU0FJTlQtVklDVE9SMRgwFgYDVQQKEw9GaWN0aW9uIEZhY3RvcnkxGDAW
BgNVBAsTD2ZpY3Rpb24tZmFjdG9yeTEPMA0GA1UEAxMGY2xpZW50MQ8wDQYDVQQp
EwZjbGllbnQxLTArBgkqhkiG9w0BCQEWHmFkbWluQGZpY3Rpb24tZmFjdG9yeS5p
bnRyYW5ldDCBnzANBgkqhkiG9w0BAQEFAAOBjQAwgYkCgYEA0FC8JAQyGLmlzGyq
xa1N6+5h36Sbgca5W2UPnkPtOWI73ZXyXlF1hXa3KpoexkCk+Wlx/mSEiMVWn0q0
2UwDaDlMbJhJyQ9ieOo3aozTuhAmP8cltng27nsJ7Eu11rdBDmf/prHo+QKyI3PN
/sSHaslNnI33UlZE8wfeBZGOgIsCAwEAAaOCAZYwggGSMAkGA1UdEwQCMAAwLQYJ
YIZIAYb4QgENBCAWHkVhc3ktUlNBIEdlbmVyYXRlZCBDZXJ0aWZpY2F0ZTAdBgNV
HQ4EFgQUQTZBARgD37tHJ6tfvhSdL+N2C7wwggETBgNVHSMEggEKMIIBBoAUSbZI
BiMUP2EL5bqsCd5wYtl80RehgeKkgd8wgdwxCzAJBgNVBAYTAkZSMQ8wDQYDVQQI
EwZDZW50cmUxITAfBgNVBAcTGExBIENIQVVTU0VFLVNBSU5ULVZJQ1RPUjEYMBYG
A1UEChMPRmljdGlvbiBGYWN0b3J5MRgwFgYDVQQLEw9maWN0aW9uLWZhY3Rvcnkx
KjAoBgNVBAMTIXJvdXRlcjAxLmZpY3Rpb24tZmFjdG9yeS5pbnRyYW5ldDERMA8G
A1UEKRMIcm91dGVyMDExJjAkBgkqhkiG9w0BCQEWF2ZhdXJpZXRoaWJhdWRAZ21h
aWwuY29tggkA/USYXbgUxSYwEwYDVR0lBAwwCgYIKwYBBQUHAwIwCwYDVR0PBAQD
AgeAMA0GCSqGSIb3DQEBBQUAA4GBADkuqiJxQoFAlGMO4ct3/w65ThDRkx5OzgBd
JotQRaBvi0PLOXocQni1lXniL2G7DAPS4eeAVZnU47yVS4W4Yckvy0vFbaK0Hirs
EfWppEMBgDQzbNZ3XoY4gtYWiFpy4MvKr/C0M0i70i4wC1L8U8zy9S7rU/ZjGvy0
SaCD4qim
-----END CERTIFICATE-----
